target datalayout = "e-m:e-p270:32:32-p271:32:32-p272:64:64-i64:64-i128:128-f80:128-n8:16:32:64-S128"
target triple = "x86_64-pc-linux-gnu"

%struct.dirent = type { i64, i64, i16, i8, [256 x i8] }

@ZONEINFO_DIR = internal global ptr @.str.14, align 8
@popularZones = internal constant [2 x [4 x i8]] [[4 x i8] c"UTC\00", [4 x i8] c"GMT\00"], align 1
@.str.10 = private unnamed_addr constant [4 x i8] c"ROC\00", align 1
@.str.11 = private unnamed_addr constant [11 x i8] c"posixrules\00", align 1
@.str.12 = private unnamed_addr constant [10 x i8] c"localtime\00", align 1
@.str.13 = private unnamed_addr constant [2 x i8] c"/\00", align 1

; Function Attrs: nounwind uwtable
define internal ptr @getPathName(ptr noundef %0, ptr noundef %1) #0 {
  %3 = alloca ptr, align 8
  %4 = alloca ptr, align 8
  %5 = alloca ptr, align 8
  %6 = alloca ptr, align 8
  store ptr %0, ptr %4, align 8
  store ptr %1, ptr %5, align 8
  %7 = load ptr, ptr %4, align 8
  %8 = call i64 @strlen(ptr noundef %7) #7
  %9 = load ptr, ptr %5, align 8
  %10 = call i64 @strlen(ptr noundef %9) #7
  %11 = add i64 %8, %10
  %12 = add i64 %11, 2
  %13 = call noalias ptr @malloc(i64 noundef %12) #9
  store ptr %13, ptr %6, align 8
  %14 = load ptr, ptr %6, align 8
  %15 = icmp eq ptr %14, null
  br i1 %15, label %16, label %17

16:                                               ; preds = %2
  store ptr null, ptr %3, align 8
  br label %24

17:                                               ; preds = %2
  %18 = load ptr, ptr %6, align 8
  %19 = load ptr, ptr %4, align 8
  %20 = call ptr @strcpy(ptr noundef %18, ptr noundef %19) #6
  %21 = call ptr @strcat(ptr noundef %20, ptr noundef @.str.13) #6
  %22 = load ptr, ptr %5, align 8
  %23 = call ptr @strcat(ptr noundef %21, ptr noundef %22) #6
  store ptr %23, ptr %3, align 8
  br label %24

24:                                               ; preds = %17, %16
  %25 = load ptr, ptr %3, align 8
  ret ptr %25
}

; Function Attrs: nounwind uwtable
define internal ptr @findZoneinfoFile(ptr noundef %0, i64 noundef %1, ptr noundef %2) #0 {
  %4 = alloca ptr, align 8
  %5 = alloca ptr, align 8
  %6 = alloca i64, align 8
  %7 = alloca ptr, align 8
  %8 = alloca ptr, align 8
  %9 = alloca ptr, align 8
  %10 = alloca ptr, align 8
  %11 = alloca ptr, align 8
  %12 = alloca i32, align 4
  store ptr %0, ptr %5, align 8
  store i64 %1, ptr %6, align 8
  store ptr %2, ptr %7, align 8
  store ptr null, ptr %8, align 8
  store ptr null, ptr %9, align 8
  store ptr null, ptr %10, align 8
  store ptr null, ptr %11, align 8
  %13 = load ptr, ptr %7, align 8
  %14 = load ptr, ptr @ZONEINFO_DIR, align 8
  %15 = call i32 @strcmp(ptr noundef %13, ptr noundef %14) #7
  %16 = icmp eq i32 %15, 0
  br i1 %16, label %17, label %47

17:                                               ; preds = %3
  store i32 0, ptr %12, align 4
  br label %18

18:                                               ; preds = %43, %17
  %19 = load i32, ptr %12, align 4
  %20 = zext i32 %19 to i64
  %21 = icmp ult i64 %20, 2
  br i1 %21, label %22, label %46

22:                                               ; preds = %18
  %23 = load ptr, ptr %7, align 8
  %24 = load i32, ptr %12, align 4
  %25 = zext i32 %24 to i64
  %26 = getelementptr inbounds [2 x [4 x i8]], ptr @popularZones, i64 0, i64 %25
  %27 = getelementptr inbounds [4 x i8], ptr %26, i64 0, i64 0
  %28 = call ptr @getPathName(ptr noundef %23, ptr noundef %27)
  store ptr %28, ptr %10, align 8
  %29 = load ptr, ptr %10, align 8
  %30 = icmp eq ptr %29, null
  br i1 %30, label %31, label %32

31:                                               ; preds = %22
  br label %43

32:                                               ; preds = %22
  %33 = load ptr, ptr %5, align 8
  %34 = load i64, ptr %6, align 8
  %35 = load ptr, ptr %10, align 8
  %36 = call ptr @isFileIdentical(ptr noundef %33, i64 noundef %34, ptr noundef %35)
  store ptr %36, ptr %11, align 8
  %37 = load ptr, ptr %10, align 8
  call void @free(ptr noundef %37) #6
  store ptr null, ptr %10, align 8
  %38 = load ptr, ptr %11, align 8
  %39 = icmp ne ptr %38, null
  br i1 %39, label %40, label %42

40:                                               ; preds = %32
  %41 = load ptr, ptr %11, align 8
  store ptr %41, ptr %4, align 8
  br label %112

42:                                               ; preds = %32
  br label %43

43:                                               ; preds = %42, %31
  %44 = load i32, ptr %12, align 4
  %45 = add i32 %44, 1
  store i32 %45, ptr %12, align 4
  br label %18, !llvm.loop !14

46:                                               ; preds = %18
  br label %47

47:                                               ; preds = %46, %3
  %48 = load ptr, ptr %7, align 8
  %49 = call ptr @opendir(ptr noundef %48)
  store ptr %49, ptr %8, align 8
  %50 = load ptr, ptr %8, align 8
  %51 = icmp eq ptr %50, null
  br i1 %51, label %52, label %53

52:                                               ; preds = %47
  store ptr null, ptr %4, align 8
  br label %112

53:                                               ; preds = %47
  br label %54

54:                                               ; preds = %103, %84, %65, %53
  %55 = load ptr, ptr %8, align 8
  %56 = call ptr @readdir64(ptr noundef %55)
  store ptr %56, ptr %9, align 8
  %57 = icmp ne ptr %56, null
  br i1 %57, label %58, label %104

58:                                               ; preds = %54
  %59 = load ptr, ptr %9, align 8
  %60 = getelementptr inbounds %struct.dirent, ptr %59, i32 0, i32 4
  %61 = getelementptr inbounds [256 x i8], ptr %60, i64 0, i64 0
  %62 = load i8, ptr %61, align 1
  %63 = sext i8 %62 to i32
  %64 = icmp eq i32 %63, 46
  br i1 %64, label %65, label %66

65:                                               ; preds = %58
  br label %54, !llvm.loop !15

66:                                               ; preds = %58
  %67 = load ptr, ptr %9, align 8
  %68 = getelementptr inbounds %struct.dirent, ptr %67, i32 0, i32 4
  %69 = getelementptr inbounds [256 x i8], ptr %68, i64 0, i64 0
  %70 = call i32 @strcmp(ptr noundef %69, ptr noundef @.str.10) #7
  %71 = icmp eq i32 %70, 0
  br i1 %71, label %84, label %72

72:                                               ; preds = %66
  %73 = load ptr, ptr %9, align 8
  %74 = getelementptr inbounds %struct.dirent, ptr %73, i32 0, i32 4
  %75 = getelementptr inbounds [256 x i8], ptr %74, i64 0, i64 0
  %76 = call i32 @strcmp(ptr noundef %75, ptr noundef @.str.11) #7
  %77 = icmp eq i32 %76, 0
  br i1 %77, label %84, label %78

78:                                               ; preds = %72
  %79 = load ptr, ptr %9, align 8
  %80 = getelementptr inbounds %struct.dirent, ptr %79, i32 0, i32 4
  %81 = getelementptr inbounds [256 x i8], ptr %80, i64 0, i64 0
  %82 = call i32 @strcmp(ptr noundef %81, ptr noundef @.str.12) #7
  %83 = icmp eq i32 %82, 0
  br i1 %83, label %84, label %85

84:                                               ; preds = %78, %72, %66
  br label %54, !llvm.loop !15

85:                                               ; preds = %78
  %86 = load ptr, ptr %7, align 8
  %87 = load ptr, ptr %9, align 8
  %88 = getelementptr inbounds %struct.dirent, ptr %87, i32 0, i32 4
  %89 = getelementptr inbounds [256 x i8], ptr %88, i64 0, i64 0
  %90 = call ptr @getPathName(ptr noundef %86, ptr noundef %89)
  store ptr %90, ptr %10, align 8
  %91 = load ptr, ptr %10, align 8
  %92 = icmp eq ptr %91, null
  br i1 %92, label %93, label %94

93:                                               ; preds = %85
  br label %104

94:                                               ; preds = %85
  %95 = load ptr, ptr %5, align 8
  %96 = load i64, ptr %6, align 8
  %97 = load ptr, ptr %10, align 8
  %98 = call ptr @isFileIdentical(ptr noundef %95, i64 noundef %96, ptr noundef %97)
  store ptr %98, ptr %11, align 8
  %99 = load ptr, ptr %10, align 8
  call void @free(ptr noundef %99) #6
  store ptr null, ptr %10, align 8
  %100 = load ptr, ptr %11, align 8
  %101 = icmp ne ptr %100, null
  br i1 %101, label %102, label %103

102:                                              ; preds = %94
  br label %104

103:                                              ; preds = %94
  br label %54, !llvm.loop !15

104:                                              ; preds = %102, %93, %54
  %105 = load ptr, ptr %8, align 8
  %106 = icmp ne ptr %105, null
  br i1 %106, label %107, label %110

107:                                              ; preds = %104
  %108 = load ptr, ptr %8, align 8
  %109 = call i32 @closedir(ptr noundef %108)
  br label %110

110:                                              ; preds = %107, %104
  %111 = load ptr, ptr %11, align 8
  store ptr %111, ptr %4, align 8
  br label %112

112:                                              ; preds = %110, %52, %40
  %113 = load ptr, ptr %4, align 8
  ret ptr %113
}