; Function Attrs: nounwind uwtable
define internal fastcc ptr @findZoneinfoFile(ptr nocapture noundef readonly %0, i64 noundef %1, ptr nocapture noundef readonly %2) unnamed_addr #0 {
  %4 = tail call i32 @strcmp(ptr noundef nonnull dereferenceable(1) %2, ptr noundef nonnull dereferenceable(20) @.str.14) #15
  %5 = icmp eq i32 %4, 0
  br i1 %5, label %.preheader45, label %.loopexit

.preheader45:                                     ; preds = %3, %getPathName.exit.thread
  %6 = phi i1 [ false, %getPathName.exit.thread ], [ true, %3 ]
  %indvars.iv = phi i64 [ 1, %getPathName.exit.thread ], [ 0, %3 ]
  %7 = getelementptr inbounds [2 x [4 x i8]], ptr @popularZones, i64 0, i64 %indvars.iv
  %8 = tail call i64 @strlen(ptr noundef nonnull readonly dereferenceable(1) %2) #15
  %9 = tail call i64 @strlen(ptr noundef nonnull readonly dereferenceable(1) %7) #15
  %10 = add i64 %8, 2
  %11 = add i64 %10, %9
  %12 = tail call noalias ptr @malloc(i64 noundef %11) #17
  %13 = icmp eq ptr %12, null
  br i1 %13, label %getPathName.exit.thread, label %14

14:                                               ; preds = %.preheader45
  %15 = tail call ptr @strcpy(ptr noundef nonnull dereferenceable(1) %12, ptr noundef nonnull readonly dereferenceable(1) %2) #14
  %strlen.i = tail call i64 @strlen(ptr nonnull dereferenceable(1) %12)
  %endptr.i = getelementptr inbounds i8, ptr %12, i64 %strlen.i
  store i16 47, ptr %endptr.i, align 1
  %16 = tail call ptr @strcat(ptr noundef nonnull dereferenceable(1) %12, ptr noundef nonnull readonly dereferenceable(1) %7) #14
  %17 = tail call fastcc ptr @isFileIdentical(ptr noundef %0, i64 noundef %1, ptr noundef nonnull %12)
  tail call void @free(ptr noundef nonnull %12) #14
  %.not41 = icmp eq ptr %17, null
  br i1 %.not41, label %getPathName.exit.thread, label %.loopexit46

getPathName.exit.thread:                          ; preds = %.preheader45, %14
  br i1 %6, label %.preheader45, label %.loopexit, !llvm.loop !14

.loopexit:                                        ; preds = %getPathName.exit.thread, %3
  %18 = tail call ptr @opendir(ptr noundef %2)
  %19 = icmp eq ptr %18, null
  br i1 %19, label %.loopexit46, label %.preheader

.preheader:                                       ; preds = %.loopexit
  %20 = tail call ptr @readdir64(ptr noundef nonnull %18) #14
  %.not48 = icmp eq ptr %20, null
  br i1 %.not48, label %getPathName.exit44.thread, label %.lr.ph

.lr.ph:                                           ; preds = %.preheader, %.backedge
  %21 = phi ptr [ %34, %.backedge ], [ %20, %.preheader ]
  %22 = getelementptr inbounds i8, ptr %21, i64 19
  %23 = load i8, ptr %22, align 1
  %24 = icmp eq i8 %23, 46
  br i1 %24, label %.backedge, label %25

25:                                               ; preds = %.lr.ph
  %26 = tail call i32 @strcmp(ptr noundef nonnull dereferenceable(1) %22, ptr noundef nonnull dereferenceable(4) @.str.10) #15
  %27 = icmp eq i32 %26, 0
  br i1 %27, label %.backedge, label %28

28:                                               ; preds = %25
  %29 = tail call i32 @strcmp(ptr noundef nonnull dereferenceable(1) %22, ptr noundef nonnull dereferenceable(11) @.str.11) #15
  %30 = icmp eq i32 %29, 0
  br i1 %30, label %.backedge, label %31

31:                                               ; preds = %28
  %32 = tail call i32 @strcmp(ptr noundef nonnull dereferenceable(1) %22, ptr noundef nonnull dereferenceable(10) @.str.12) #15
  %33 = icmp eq i32 %32, 0
  br i1 %33, label %.backedge, label %35

.backedge:                                        ; preds = %25, %28, %31, %.lr.ph, %42
  %34 = tail call ptr @readdir64(ptr noundef nonnull %18) #14
  %.not = icmp eq ptr %34, null
  br i1 %.not, label %getPathName.exit44.thread, label %.lr.ph, !llvm.loop !15

35:                                               ; preds = %31
  %36 = tail call i64 @strlen(ptr noundef nonnull readonly dereferenceable(1) %2) #15
  %37 = tail call i64 @strlen(ptr noundef nonnull readonly dereferenceable(1) %22) #15
  %38 = add i64 %36, 2
  %39 = add i64 %38, %37
  %40 = tail call noalias ptr @malloc(i64 noundef %39) #17
  %41 = icmp eq ptr %40, null
  br i1 %41, label %getPathName.exit44.thread, label %42

42:                                               ; preds = %35
  %43 = tail call ptr @strcpy(ptr noundef nonnull dereferenceable(1) %40, ptr noundef nonnull readonly dereferenceable(1) %2) #14
  %strlen.i42 = tail call i64 @strlen(ptr nonnull dereferenceable(1) %40)
  %endptr.i43 = getelementptr inbounds i8, ptr %40, i64 %strlen.i42
  store i16 47, ptr %endptr.i43, align 1
  %44 = tail call ptr @strcat(ptr noundef nonnull dereferenceable(1) %40, ptr noundef nonnull readonly dereferenceable(1) %22) #14
  %45 = tail call fastcc ptr @isFileIdentical(ptr noundef %0, i64 noundef %1, ptr noundef nonnull %40)
  tail call void @free(ptr noundef nonnull %40) #14
  %.not40 = icmp eq ptr %45, null
  br i1 %.not40, label %.backedge, label %getPathName.exit44.thread

getPathName.exit44.thread:                        ; preds = %42, %.backedge, %35, %.preheader
  %.4 = phi ptr [ null, %.preheader ], [ null, %35 ], [ null, %.backedge ], [ %45, %42 ]
  %46 = tail call i32 @closedir(ptr noundef nonnull %18)
  br label %.loopexit46

.loopexit46:                                      ; preds = %14, %.loopexit, %getPathName.exit44.thread
  %.031 = phi ptr [ %.4, %getPathName.exit44.thread ], [ null, %.loopexit ], [ %17, %14 ]
  ret ptr %.031
}